target datalayout = "e-m:e-p270:32:32-p271:32:32-p272:64:64-i64:64-i128:128-f80:128-n8:16:32:64-S128"
target triple = "x86_64-pc-linux-gnu"

%struct._XSettingsClient = type { ptr, i32, ptr, ptr, ptr, ptr, ptr, i64, i64, i64, i64, ptr }

@X11_XSelectInput = external global ptr, align 8
@X11_XGrabServer = external global ptr, align 8
@X11_XGetSelectionOwner = external global ptr, align 8
@X11_XUngrabServer = external global ptr, align 8
@X11_XFlush = external global ptr, align 8

; Function Attrs: nounwind uwtable
define internal void @check_manager_window(ptr noundef %0) #0 {
  %2 = alloca ptr, align 8
  store ptr %0, ptr %2, align 8
  %3 = load ptr, ptr %2, align 8
  %4 = getelementptr inbounds nuw %struct._XSettingsClient, ptr %3, i32 0, i32 7
  %5 = load i64, ptr %4, align 8
  %6 = icmp ne i64 %5, 0
  br i1 %6, label %7, label %23

7:                                                ; preds = %1
  %8 = load ptr, ptr %2, align 8
  %9 = getelementptr inbounds nuw %struct._XSettingsClient, ptr %8, i32 0, i32 3
  %10 = load ptr, ptr %9, align 8
  %11 = icmp ne ptr %10, null
  br i1 %11, label %12, label %23

12:                                               ; preds = %7
  %13 = load ptr, ptr %2, align 8
  %14 = getelementptr inbounds nuw %struct._XSettingsClient, ptr %13, i32 0, i32 3
  %15 = load ptr, ptr %14, align 8
  %16 = load ptr, ptr %2, align 8
  %17 = getelementptr inbounds nuw %struct._XSettingsClient, ptr %16, i32 0, i32 7
  %18 = load i64, ptr %17, align 8
  %19 = load ptr, ptr %2, align 8
  %20 = getelementptr inbounds nuw %struct._XSettingsClient, ptr %19, i32 0, i32 4
  %21 = load ptr, ptr %20, align 8
  %22 = call i32 %15(i64 noundef %18, i32 noundef 0, i64 noundef 0, ptr noundef %21)
  br label %23

23:                                               ; preds = %12, %7, %1
  %24 = load ptr, ptr %2, align 8
  %25 = getelementptr inbounds nuw %struct._XSettingsClient, ptr %24, i32 0, i32 5
  %26 = load ptr, ptr %25, align 8
  %27 = icmp ne ptr %26, null
  br i1 %27, label %28, label %35

28:                                               ; preds = %23
  %29 = load ptr, ptr %2, align 8
  %30 = getelementptr inbounds nuw %struct._XSettingsClient, ptr %29, i32 0, i32 5
  %31 = load ptr, ptr %30, align 8
  %32 = load ptr, ptr %2, align 8
  %33 = getelementptr inbounds nuw %struct._XSettingsClient, ptr %32, i32 0, i32 0
  %34 = load ptr, ptr %33, align 8
  call void %31(ptr noundef %34)
  br label %41

35:                                               ; preds = %23
  %36 = load ptr, ptr @X11_XGrabServer, align 8
  %37 = load ptr, ptr %2, align 8
  %38 = getelementptr inbounds nuw %struct._XSettingsClient, ptr %37, i32 0, i32 0
  %39 = load ptr, ptr %38, align 8
  %40 = call i32 %36(ptr noundef %39)
  br label %41

41:                                               ; preds = %35, %28
  %42 = load ptr, ptr @X11_XGetSelectionOwner, align 8
  %43 = load ptr, ptr %2, align 8
  %44 = getelementptr inbounds nuw %struct._XSettingsClient, ptr %43, i32 0, i32 0
  %45 = load ptr, ptr %44, align 8
  %46 = load ptr, ptr %2, align 8
  %47 = getelementptr inbounds nuw %struct._XSettingsClient, ptr %46, i32 0, i32 9
  %48 = load i64, ptr %47, align 8
  %49 = call i64 %42(ptr noundef %45, i64 noundef %48)
  %50 = load ptr, ptr %2, align 8
  %51 = getelementptr inbounds nuw %struct._XSettingsClient, ptr %50, i32 0, i32 7
  store i64 %49, ptr %51, align 8
  %52 = load ptr, ptr %2, align 8
  %53 = getelementptr inbounds nuw %struct._XSettingsClient, ptr %52, i32 0, i32 7
  %54 = load i64, ptr %53, align 8
  %55 = icmp ne i64 %54, 0
  br i1 %55, label %56, label %65

56:                                               ; preds = %41
  %57 = load ptr, ptr @X11_XSelectInput, align 8
  %58 = load ptr, ptr %2, align 8
  %59 = getelementptr inbounds nuw %struct._XSettingsClient, ptr %58, i32 0, i32 0
  %60 = load ptr, ptr %59, align 8
  %61 = load ptr, ptr %2, align 8
  %62 = getelementptr inbounds nuw %struct._XSettingsClient, ptr %61, i32 0, i32 7
  %63 = load i64, ptr %62, align 8
  %64 = call i32 %57(ptr noundef %60, i64 noundef %63, i64 noundef 4325376)
  br label %65

65:                                               ; preds = %56, %41
  %66 = load ptr, ptr %2, align 8
  %67 = getelementptr inbounds nuw %struct._XSettingsClient, ptr %66, i32 0, i32 6
  %68 = load ptr, ptr %67, align 8
  %69 = icmp ne ptr %68, null
  br i1 %69, label %70, label %77

70:                                               ; preds = %65
  %71 = load ptr, ptr %2, align 8
  %72 = getelementptr inbounds nuw %struct._XSettingsClient, ptr %71, i32 0, i32 6
  %73 = load ptr, ptr %72, align 8
  %74 = load ptr, ptr %2, align 8
  %75 = getelementptr inbounds nuw %struct._XSettingsClient, ptr %74, i32 0, i32 0
  %76 = load ptr, ptr %75, align 8
  call void %73(ptr noundef %76)
  br label %83

77:                                               ; preds = %65
  %78 = load ptr, ptr @X11_XUngrabServer, align 8
  %79 = load ptr, ptr %2, align 8
  %80 = getelementptr inbounds nuw %struct._XSettingsClient, ptr %79, i32 0, i32 0
  %81 = load ptr, ptr %80, align 8
  %82 = call i32 %78(ptr noundef %81)
  br label %83

83:                                               ; preds = %77, %70
  %84 = load ptr, ptr @X11_XFlush, align 8
  %85 = load ptr, ptr %2, align 8
  %86 = getelementptr inbounds nuw %struct._XSettingsClient, ptr %85, i32 0, i32 0
  %87 = load ptr, ptr %86, align 8
  %88 = call i32 %84(ptr noundef %87)
  %89 = load ptr, ptr %2, align 8
  %90 = getelementptr inbounds nuw %struct._XSettingsClient, ptr %89, i32 0, i32 7
  %91 = load i64, ptr %90, align 8
  %92 = icmp ne i64 %91, 0
  br i1 %92, label %93, label %114

93:                                               ; preds = %83
  %94 = load ptr, ptr %2, align 8
  %95 = getelementptr inbounds nuw %struct._XSettingsClient, ptr %94, i32 0, i32 3
  %96 = load ptr, ptr %95, align 8
  %97 = icmp ne ptr %96, null
  br i1 %97, label %98, label %114

98:                                               ; preds = %93
  %99 = load ptr, ptr %2, align 8
  %100 = getelementptr inbounds nuw %struct._XSettingsClient, ptr %99, i32 0, i32 3
  %101 = load ptr, ptr %100, align 8
  %102 = load ptr, ptr %2, align 8
  %103 = getelementptr inbounds nuw %struct._XSettingsClient, ptr %102, i32 0, i32 7
  %104 = load i64, ptr %103, align 8
  %105 = load ptr, ptr %2, align 8
  %106 = getelementptr inbounds nuw %struct._XSettingsClient, ptr %105, i32 0, i32 4
  %107 = load ptr, ptr %106, align 8
  %108 = call i32 %101(i64 noundef %104, i32 noundef 1, i64 noundef 4325376, ptr noundef %107)
  %109 = icmp ne i32 %108, 0
  br i1 %109, label %113, label %110

110:                                              ; preds = %98
  %111 = load ptr, ptr %2, align 8
  %112 = getelementptr inbounds nuw %struct._XSettingsClient, ptr %111, i32 0, i32 7
  store i64 0, ptr %112, align 8
  br label %116

113:                                              ; preds = %98
  br label %114

114:                                              ; preds = %113, %93, %83
  %115 = load ptr, ptr %2, align 8
  call void @read_settings(ptr noundef %115)
  br label %116

116:                                              ; preds = %114, %110
  ret void
}