; Function Attrs: nounwind uwtable
define internal fastcc void @check_manager_window(ptr noundef captures(none) %0) unnamed_addr #0 {
  %2 = getelementptr inbounds nuw i8, ptr %0, i64 56
  %3 = load i64, ptr %2, align 8
  %.not = icmp eq i64 %3, 0
  br i1 %.not, label %11, label %4

4:                                                ; preds = %1
  %5 = getelementptr inbounds nuw i8, ptr %0, i64 24
  %6 = load ptr, ptr %5, align 8
  %.not33 = icmp eq ptr %6, null
  br i1 %.not33, label %11, label %7

7:                                                ; preds = %4
  %8 = getelementptr inbounds nuw i8, ptr %0, i64 32
  %9 = load ptr, ptr %8, align 8
  %10 = tail call i32 %6(i64 noundef %3, i32 noundef 0, i64 noundef 0, ptr noundef %9) #14
  br label %11

11:                                               ; preds = %7, %4, %1
  %12 = getelementptr inbounds nuw i8, ptr %0, i64 40
  %13 = load ptr, ptr %12, align 8
  %.not34 = icmp eq ptr %13, null
  br i1 %.not34, label %16, label %14

14:                                               ; preds = %11
  %15 = load ptr, ptr %0, align 8
  tail call void %13(ptr noundef %15) #14
  br label %20

16:                                               ; preds = %11
  %17 = load ptr, ptr @X11_XGrabServer, align 8
  %18 = load ptr, ptr %0, align 8
  %19 = tail call i32 %17(ptr noundef %18) #14
  br label %20

20:                                               ; preds = %16, %14
  %21 = load ptr, ptr @X11_XGetSelectionOwner, align 8
  %22 = load ptr, ptr %0, align 8
  %23 = getelementptr inbounds nuw i8, ptr %0, i64 72
  %24 = load i64, ptr %23, align 8
  %25 = tail call i64 %21(ptr noundef %22, i64 noundef %24) #14
  store i64 %25, ptr %2, align 8
  %.not35 = icmp eq i64 %25, 0
  br i1 %.not35, label %30, label %26

26:                                               ; preds = %20
  %27 = load ptr, ptr @X11_XSelectInput, align 8
  %28 = load ptr, ptr %0, align 8
  %29 = tail call i32 %27(ptr noundef %28, i64 noundef %25, i64 noundef 4325376) #14
  br label %30

30:                                               ; preds = %26, %20
  %31 = getelementptr inbounds nuw i8, ptr %0, i64 48
  %32 = load ptr, ptr %31, align 8
  %.not36 = icmp eq ptr %32, null
  br i1 %.not36, label %35, label %33

33:                                               ; preds = %30
  %34 = load ptr, ptr %0, align 8
  tail call void %32(ptr noundef %34) #14
  br label %39

35:                                               ; preds = %30
  %36 = load ptr, ptr @X11_XUngrabServer, align 8
  %37 = load ptr, ptr %0, align 8
  %38 = tail call i32 %36(ptr noundef %37) #14
  br label %39

39:                                               ; preds = %35, %33
  %40 = load ptr, ptr @X11_XFlush, align 8
  %41 = load ptr, ptr %0, align 8
  %42 = tail call i32 %40(ptr noundef %41) #14
  %43 = load i64, ptr %2, align 8
  %.not37 = icmp eq i64 %43, 0
  br i1 %.not37, label %52, label %44

44:                                               ; preds = %39
  %45 = getelementptr inbounds nuw i8, ptr %0, i64 24
  %46 = load ptr, ptr %45, align 8
  %.not38 = icmp eq ptr %46, null
  br i1 %.not38, label %52, label %47

47:                                               ; preds = %44
  %48 = getelementptr inbounds nuw i8, ptr %0, i64 32
  %49 = load ptr, ptr %48, align 8
  %50 = tail call i32 %46(i64 noundef %43, i32 noundef 1, i64 noundef 4325376, ptr noundef %49) #14
  %.not39 = icmp eq i32 %50, 0
  br i1 %.not39, label %51, label %52

51:                                               ; preds = %47
  store i64 0, ptr %2, align 8
  br label %53

52:                                               ; preds = %47, %44, %39
  tail call fastcc void @read_settings(ptr noundef nonnull %0)
  br label %53

53:                                               ; preds = %52, %51
  ret void
}